# Suppressions for C / macOS 10.14 Mojave
############################################

{
   <Suppression: 1>
   Memcheck:Leak
   match-leak-kinds: reachable
   fun:malloc
   fun:__setenv_locked
   fun:setenv
   fun:_libxpc_initializer
   fun:libSystem_initializer
   fun:_ZN16ImageLoaderMachO18doModInitFunctionsERKN11ImageLoader11LinkContextE
   fun:_ZN16ImageLoaderMachO16doInitializationERKN11ImageLoader11LinkContextE
   fun:_ZN11ImageLoader23recursiveInitializationERKNS_11LinkContextEjPKcRNS_21InitializerTimingListERNS_15UninitedUpwardsE
   fun:_ZN11ImageLoader23recursiveInitializationERKNS_11LinkContextEjPKcRNS_21InitializerTimingListERNS_15UninitedUpwardsE
   fun:_ZN11ImageLoader19processInitializersERKNS_11LinkContextEjRNS_21InitializerTimingListERNS_15UninitedUpwardsE
   fun:_ZN11ImageLoader15runInitializersERKNS_11LinkContextERNS_21InitializerTimingListE
   fun:_ZN4dyld24initializeMainExecutableEv
}

{
   <Suppression: 2>
   Memcheck:Leak
   match-leak-kinds: reachable
   fun:malloc_zone_calloc
   fun:NXHashInsert
   fun:_ZL13hashPrototypePKvS0_
   fun:_read_images
   fun:_hasObjcContents
   fun:__objc_personality_v0
   fun:_ZN4dyldL18notifyBatchPartialE17dyld_image_statesbPFPKcS0_jPK15dyld_image_infoEbb
   fun:_ZN4dyld21registerObjCNotifiersEPFvjPKPKcPKPK11mach_headerEPFvS1_S6_ESC_
   fun:_dyld_objc_notify_register
   fun:environ_init
   fun:_os_object_init
   fun:libdispatch_init
}

{
   <Suppression: 3>
   Memcheck:Leak
   match-leak-kinds: reachable
   fun:malloc
   fun:_owned_ptr_alloc
   fun:setenv
   fun:_libxpc_initializer
   fun:libSystem_initializer
   fun:_ZN16ImageLoaderMachO18doModInitFunctionsERKN11ImageLoader11LinkContextE
   fun:_ZN16ImageLoaderMachO16doInitializationERKN11ImageLoader11LinkContextE
   fun:_ZN11ImageLoader23recursiveInitializationERKNS_11LinkContextEjPKcRNS_21InitializerTimingListERNS_15UninitedUpwardsE
   fun:_ZN11ImageLoader23recursiveInitializationERKNS_11LinkContextEjPKcRNS_21InitializerTimingListERNS_15UninitedUpwardsE
   fun:_ZN11ImageLoader19processInitializersERKNS_11LinkContextEjRNS_21InitializerTimingListERNS_15UninitedUpwardsE
   fun:_ZN11ImageLoader15runInitializersERKNS_11LinkContextERNS_21InitializerTimingListE
   fun:_ZN4dyld24initializeMainExecutableEv
}

{
   <Suppression: 4>
   Memcheck:Leak
   match-leak-kinds: reachable
   fun:malloc_zone_malloc
   fun:NXCreateHashTableFromZone
   fun:NXCreateHashTableFromZone
   fun:_ZNSt3__112__hash_tableINS_17__hash_value_typeImPN23objc_references_support20ObjectAssociationMapEEENS_22__unordered_map_hasherImS5_NS2_20DisguisedPointerHashELb1EEENS_21__unordered_map_equalImS5_NS2_21DisguisedPointerEqualELb1EEENS2_13ObjcAllocatorIS5_EEE8__rehashEm
   fun:_ZNK8objc_opt17objc_stringhash_t8getIndexEPKc
   fun:_Z14getDataSectionI15objc_image_infoEPT_PK14mach_header_64PKcPmS8_
   fun:__objc_personality_v0
   fun:_ZN4dyldL18notifyBatchPartialE17dyld_image_statesbPFPKcS0_jPK15dyld_image_infoEbb
   fun:_ZN4dyld21registerObjCNotifiersEPFvjPKPKcPKPK11mach_headerEPFvS1_S6_ESC_
   fun:_dyld_objc_notify_register
   fun:environ_init
   fun:_os_object_init
}

{
   <Suppression: 5>
   Memcheck:Leak
   match-leak-kinds: reachable
   fun:malloc_zone_malloc
   fun:NXCreateHashTableFromZone
   fun:NXCreateHashTableFromZone
   fun:_read_images
   fun:_hasObjcContents
   fun:__objc_personality_v0
   fun:_ZN4dyldL18notifyBatchPartialE17dyld_image_statesbPFPKcS0_jPK15dyld_image_infoEbb
   fun:_ZN4dyld21registerObjCNotifiersEPFvjPKPKcPKPK11mach_headerEPFvS1_S6_ESC_
   fun:_dyld_objc_notify_register
   fun:environ_init
   fun:_os_object_init
   fun:libdispatch_init
}

{
   <Suppression: 6>
   Memcheck:Leak
   match-leak-kinds: reachable
   fun:malloc_zone_malloc
   fun:NXCreateHashTableFromZone
   fun:NXCreateHashTableFromZone
   fun:_ZL11_mapStrHashP11_NXMapTablePKv
   fun:_read_images
   fun:_hasObjcContents
   fun:__objc_personality_v0
   fun:_ZN4dyldL18notifyBatchPartialE17dyld_image_statesbPFPKcS0_jPK15dyld_image_infoEbb
   fun:_ZN4dyld21registerObjCNotifiersEPFvjPKPKcPKPK11mach_headerEPFvS1_S6_ESC_
   fun:_dyld_objc_notify_register
   fun:environ_init
   fun:_os_object_init
}

{
   <Suppression: 7>
   Memcheck:Leak
   match-leak-kinds: reachable
   fun:malloc_zone_malloc
   fun:NXCreateHashTableFromZone
   fun:NXCreateHashTableFromZone
   fun:NXMapRemove
   fun:_unload_image
   fun:_objc_flush_caches
   fun:_objc_flush_caches
   fun:_objc_flush_caches
   fun:_objc_flush_caches
   fun:_read_images
   fun:_hasObjcContents
   fun:__objc_personality_v0
}

{
   <Suppression: 8>
   Memcheck:Leak
   match-leak-kinds: possible
   fun:malloc_zone_calloc
   fun:_ZL11freeBucketsP11NXHashTablei
   fun:NXHashInsert
   fun:_ZL13hashPrototypePKvS0_
   fun:_read_images
   fun:_hasObjcContents
   fun:__objc_personality_v0
   fun:_ZN4dyldL18notifyBatchPartialE17dyld_image_statesbPFPKcS0_jPK15dyld_image_infoEbb
   fun:_ZN4dyld21registerObjCNotifiersEPFvjPKPKcPKPK11mach_headerEPFvS1_S6_ESC_
   fun:_dyld_objc_notify_register
   fun:environ_init
   fun:_os_object_init
}

{
   <Suppression: 9>
   Memcheck:Leak
   match-leak-kinds: reachable
   fun:malloc_zone_malloc
   fun:_ZL16isEqualPrototypePKvS0_S0_
   fun:_ZL13hashPrototypePKvS0_
   fun:NXCreateHashTableFromZone
   fun:NXCreateHashTableFromZone
   fun:_ZNSt3__112__hash_tableINS_17__hash_value_typeImPN23objc_references_support20ObjectAssociationMapEEENS_22__unordered_map_hasherImS5_NS2_20DisguisedPointerHashELb1EEENS_21__unordered_map_equalImS5_NS2_21DisguisedPointerEqualELb1EEENS2_13ObjcAllocatorIS5_EEE8__rehashEm
   fun:_ZNK8objc_opt17objc_stringhash_t8getIndexEPKc
   fun:_Z14getDataSectionI15objc_image_infoEPT_PK14mach_header_64PKcPmS8_
   fun:__objc_personality_v0
   fun:_ZN4dyldL18notifyBatchPartialE17dyld_image_statesbPFPKcS0_jPK15dyld_image_infoEbb
   fun:_ZN4dyld21registerObjCNotifiersEPFvjPKPKcPKPK11mach_headerEPFvS1_S6_ESC_
   fun:_dyld_objc_notify_register
}

{
   <Suppression: 10>
   Memcheck:Leak
   match-leak-kinds: reachable
   fun:malloc_zone_malloc
   fun:NXHashInsert
   fun:_ZL13hashPrototypePKvS0_
   fun:NXCreateHashTableFromZone
   fun:NXCreateHashTableFromZone
   fun:_ZNSt3__112__hash_tableINS_17__hash_value_typeImPN23objc_references_support20ObjectAssociationMapEEENS_22__unordered_map_hasherImS5_NS2_20DisguisedPointerHashELb1EEENS_21__unordered_map_equalImS5_NS2_21DisguisedPointerEqualELb1EEENS2_13ObjcAllocatorIS5_EEE8__rehashEm
   fun:_ZNK8objc_opt17objc_stringhash_t8getIndexEPKc
   fun:_Z14getDataSectionI15objc_image_infoEPT_PK14mach_header_64PKcPmS8_
   fun:__objc_personality_v0
   fun:_ZN4dyldL18notifyBatchPartialE17dyld_image_statesbPFPKcS0_jPK15dyld_image_infoEbb
   fun:_ZN4dyld21registerObjCNotifiersEPFvjPKPKcPKPK11mach_headerEPFvS1_S6_ESC_
   fun:_dyld_objc_notify_register
}

{
   <Suppression: 11>
   Memcheck:Leak
   match-leak-kinds: reachable
   fun:malloc
   fun:NXHashInsert
   fun:_ZL13hashPrototypePKvS0_
   fun:NXCreateHashTableFromZone
   fun:NXCreateHashTableFromZone
   fun:_ZNSt3__112__hash_tableINS_17__hash_value_typeImPN23objc_references_support20ObjectAssociationMapEEENS_22__unordered_map_hasherImS5_NS2_20DisguisedPointerHashELb1EEENS_21__unordered_map_equalImS5_NS2_21DisguisedPointerEqualELb1EEENS2_13ObjcAllocatorIS5_EEE8__rehashEm
   fun:_ZNK8objc_opt17objc_stringhash_t8getIndexEPKc
   fun:_Z14getDataSectionI15objc_image_infoEPT_PK14mach_header_64PKcPmS8_
   fun:__objc_personality_v0
   fun:_ZN4dyldL18notifyBatchPartialE17dyld_image_statesbPFPKcS0_jPK15dyld_image_infoEbb
   fun:_ZN4dyld21registerObjCNotifiersEPFvjPKPKcPKPK11mach_headerEPFvS1_S6_ESC_
   fun:_dyld_objc_notify_register
}

{
   <Suppression: 12>
   Memcheck:Leak
   match-leak-kinds: reachable
   fun:malloc
   fun:NXHashGet
   fun:NXCreateHashTableFromZone
   fun:_ZNSt3__112__hash_tableINS_17__hash_value_typeImPN23objc_references_support20ObjectAssociationMapEEENS_22__unordered_map_hasherImS5_NS2_20DisguisedPointerHashELb1EEENS_21__unordered_map_equalImS5_NS2_21DisguisedPointerEqualELb1EEENS2_13ObjcAllocatorIS5_EEE8__rehashEm
   fun:_ZNK8objc_opt17objc_stringhash_t8getIndexEPKc
   fun:_Z14getDataSectionI15objc_image_infoEPT_PK14mach_header_64PKcPmS8_
   fun:__objc_personality_v0
   fun:_ZN4dyldL18notifyBatchPartialE17dyld_image_statesbPFPKcS0_jPK15dyld_image_infoEbb
   fun:_ZN4dyld21registerObjCNotifiersEPFvjPKPKcPKPK11mach_headerEPFvS1_S6_ESC_
   fun:_dyld_objc_notify_register
   fun:environ_init
   fun:_os_object_init
}

{
   <Suppression: 13>
   Memcheck:Leak
   match-leak-kinds: reachable
   fun:malloc_zone_malloc
   fun:_ZL16isEqualPrototypePKvS0_S0_
   fun:_ZL13hashPrototypePKvS0_
   fun:_read_images
   fun:_hasObjcContents
   fun:__objc_personality_v0
   fun:_ZN4dyldL18notifyBatchPartialE17dyld_image_statesbPFPKcS0_jPK15dyld_image_infoEbb
   fun:_ZN4dyld21registerObjCNotifiersEPFvjPKPKcPKPK11mach_headerEPFvS1_S6_ESC_
   fun:_dyld_objc_notify_register
   fun:environ_init
   fun:_os_object_init
   fun:libdispatch_init
}

{
   <Suppression: 14>
   Memcheck:Leak
   match-leak-kinds: reachable
   fun:malloc
   fun:NXHashInsert
   fun:_ZL13hashPrototypePKvS0_
   fun:_read_images
   fun:_hasObjcContents
   fun:__objc_personality_v0
   fun:_ZN4dyldL18notifyBatchPartialE17dyld_image_statesbPFPKcS0_jPK15dyld_image_infoEbb
   fun:_ZN4dyld21registerObjCNotifiersEPFvjPKPKcPKPK11mach_headerEPFvS1_S6_ESC_
   fun:_dyld_objc_notify_register
   fun:environ_init
   fun:_os_object_init
   fun:libdispatch_init
}

{
   <Suppression: 15>
   Memcheck:Leak
   match-leak-kinds: reachable
   fun:malloc
   fun:NXHashGet
   fun:NXCreateHashTableFromZone
   fun:NXMapRemove
   fun:_unload_image
   fun:_objc_flush_caches
   fun:_objc_flush_caches
   fun:_objc_flush_caches
   fun:_objc_flush_caches
   fun:_read_images
   fun:_hasObjcContents
   fun:__objc_personality_v0
}

{
   <Suppression: 16>
   Memcheck:Leak
   match-leak-kinds: reachable
   fun:calloc
   fun:objc_msgLookup
   fun:_os_object_alloc_realized
   fun:xpc_array_create
   fun:_libxpc_initializer
   fun:libSystem_initializer
   fun:_ZN16ImageLoaderMachO18doModInitFunctionsERKN11ImageLoader11LinkContextE
   fun:_ZN16ImageLoaderMachO16doInitializationERKN11ImageLoader11LinkContextE
   fun:_ZN11ImageLoader23recursiveInitializationERKNS_11LinkContextEjPKcRNS_21InitializerTimingListERNS_15UninitedUpwardsE
   fun:_ZN11ImageLoader23recursiveInitializationERKNS_11LinkContextEjPKcRNS_21InitializerTimingListERNS_15UninitedUpwardsE
   fun:_ZN11ImageLoader19processInitializersERKNS_11LinkContextEjRNS_21InitializerTimingListERNS_15UninitedUpwardsE
   fun:_ZN11ImageLoader15runInitializersERKNS_11LinkContextERNS_21InitializerTimingListE
}

{
   <Suppression: 17>
   Memcheck:Leak
   match-leak-kinds: reachable
   fun:malloc_zone_calloc
   fun:_ZL10remapClassP10objc_class
   fun:_ZN10TimeLogger3logEPKc
   fun:NXHashInsert
   fun:_ZL13hashPrototypePKvS0_
   fun:NXCreateHashTableFromZone
   fun:NXCreateHashTableFromZone
   fun:_ZNSt3__112__hash_tableINS_17__hash_value_typeImPN23objc_references_support20ObjectAssociationMapEEENS_22__unordered_map_hasherImS5_NS2_20DisguisedPointerHashELb1EEENS_21__unordered_map_equalImS5_NS2_21DisguisedPointerEqualELb1EEENS2_13ObjcAllocatorIS5_EEE8__rehashEm
   fun:_ZNK8objc_opt17objc_stringhash_t8getIndexEPKc
   fun:_Z14getDataSectionI15objc_image_infoEPT_PK14mach_header_64PKcPmS8_
   fun:__objc_personality_v0
   fun:_ZN4dyldL18notifyBatchPartialE17dyld_image_statesbPFPKcS0_jPK15dyld_image_infoEbb
}
{
   <Suppression: 18>
   Memcheck:Leak
   match-leak-kinds: reachable
   fun:malloc_zone_calloc
   fun:_ZL10remapClassP10objc_class
   fun:_ZN10TimeLogger3logEPKc
   fun:NXHashGet
   fun:NXCreateHashTableFromZone
   fun:NXMapRemove
   fun:_unload_image
   fun:_objc_flush_caches
   fun:_objc_flush_caches
   fun:_objc_flush_caches
   fun:_objc_flush_caches
   fun:_read_images
}
{
   <Suppression: 19>
   Memcheck:Leak
   match-leak-kinds: reachable
   fun:calloc
   fun:map_images_nolock
   fun:__objc_personality_v0
   fun:_ZN4dyldL18notifyBatchPartialE17dyld_image_statesbPFPKcS0_jPK15dyld_image_infoEbb
   fun:_ZN4dyld21registerObjCNotifiersEPFvjPKPKcPKPK11mach_headerEPFvS1_S6_ESC_
   fun:_dyld_objc_notify_register
   fun:environ_init
   fun:_os_object_init
   fun:libdispatch_init
   fun:libSystem_initializer
   fun:_ZN16ImageLoaderMachO18doModInitFunctionsERKN11ImageLoader11LinkContextE
   fun:_ZN16ImageLoaderMachO16doInitializationERKN11ImageLoader11LinkContextE
}
{
   <Suppression: 20>
   Memcheck:Leak
   match-leak-kinds: possible
   fun:calloc
   fun:map_images_nolock
   fun:__objc_personality_v0
   fun:_ZN4dyldL18notifyBatchPartialE17dyld_image_statesbPFPKcS0_jPK15dyld_image_infoEbb
   fun:_ZN4dyld21registerObjCNotifiersEPFvjPKPKcPKPK11mach_headerEPFvS1_S6_ESC_
   fun:_dyld_objc_notify_register
   fun:environ_init
   fun:_os_object_init
   fun:libdispatch_init
   fun:libSystem_initializer
   fun:_ZN16ImageLoaderMachO18doModInitFunctionsERKN11ImageLoader11LinkContextE
   fun:_ZN16ImageLoaderMachO16doInitializationERKN11ImageLoader11LinkContextE
}
{
   <Suppression: 21>
   Memcheck:Leak
   match-leak-kinds: reachable
   fun:calloc
   fun:objc_msgLookup
   fun:_os_object_alloc_realized
   fun:_xpc_pipe_create
   fun:_xpc_create_bootstrap_pipe
   fun:_libxpc_initializer
   fun:libSystem_initializer
   fun:_ZN16ImageLoaderMachO18doModInitFunctionsERKN11ImageLoader11LinkContextE
   fun:_ZN16ImageLoaderMachO16doInitializationERKN11ImageLoader11LinkContextE
   fun:_ZN11ImageLoader23recursiveInitializationERKNS_11LinkContextEjPKcRNS_21InitializerTimingListERNS_15UninitedUpwardsE
   fun:_ZN11ImageLoader23recursiveInitializationERKNS_11LinkContextEjPKcRNS_21InitializerTimingListERNS_15UninitedUpwardsE
   fun:_ZN11ImageLoader19processInitializersERKNS_11LinkContextEjRNS_21InitializerTimingListERNS_15UninitedUpwardsE
}
{
   <Suppression: 22>
   Memcheck:Leak
   match-leak-kinds: reachable
   fun:calloc
   fun:_objc_flush_caches
   fun:_objc_flush_caches
   fun:_objc_flush_caches
   fun:_read_images
   fun:_hasObjcContents
   fun:__objc_personality_v0
   fun:_ZN4dyldL18notifyBatchPartialE17dyld_image_statesbPFPKcS0_jPK15dyld_image_infoEbb
   fun:_ZN4dyld21registerObjCNotifiersEPFvjPKPKcPKPK11mach_headerEPFvS1_S6_ESC_
   fun:_dyld_objc_notify_register
   fun:environ_init
   fun:_os_object_init
}
{
   <Suppression: 23>
   Memcheck:Leak
   match-leak-kinds: reachable
   fun:calloc
   fun:_objc_flush_caches
   fun:_objc_flush_caches
   fun:_objc_flush_caches
   fun:_objc_flush_caches
   fun:_read_images
   fun:_hasObjcContents
   fun:__objc_personality_v0
   fun:_ZN4dyldL18notifyBatchPartialE17dyld_image_statesbPFPKcS0_jPK15dyld_image_infoEbb
   fun:_ZN4dyld21registerObjCNotifiersEPFvjPKPKcPKPK11mach_headerEPFvS1_S6_ESC_
   fun:_dyld_objc_notify_register
   fun:environ_init
}
{
   <Suppression: 24>
   Memcheck:Leak
   match-leak-kinds: reachable
   fun:calloc
   fun:_objc_flush_caches
   fun:_objc_flush_caches
   fun:_objc_flush_caches
   fun:_objc_flush_caches
   fun:_objc_flush_caches
   fun:_read_images
   fun:_hasObjcContents
   fun:__objc_personality_v0
   fun:_ZN4dyldL18notifyBatchPartialE17dyld_image_statesbPFPKcS0_jPK15dyld_image_infoEbb
   fun:_ZN4dyld21registerObjCNotifiersEPFvjPKPKcPKPK11mach_headerEPFvS1_S6_ESC_
   fun:_dyld_objc_notify_register
}
{
   <Suppression: 25>
   Memcheck:Leak
   match-leak-kinds: reachable
   fun:calloc
   fun:_objc_flush_caches
   fun:_objc_flush_caches
   fun:_objc_flush_caches
   fun:_objc_flush_caches
   fun:_read_images
   fun:_hasObjcContents
   fun:__objc_personality_v0
   fun:_ZN4dyldL18notifyBatchPartialE17dyld_image_statesbPFPKcS0_jPK15dyld_image_infoEbb
   fun:_ZN4dyld21registerObjCNotifiersEPFvjPKPKcPKPK11mach_headerEPFvS1_S6_ESC_
   fun:_dyld_objc_notify_register
   fun:environ_init
}
{
   <Suppression: 26>
   Memcheck:Leak
   match-leak-kinds: reachable
   fun:calloc
   fun:_xpc_calloc
   fun:xpc_array_create
   fun:_libxpc_initializer
   fun:libSystem_initializer
   fun:_ZN16ImageLoaderMachO18doModInitFunctionsERKN11ImageLoader11LinkContextE
   fun:_ZN16ImageLoaderMachO16doInitializationERKN11ImageLoader11LinkContextE
   fun:_ZN11ImageLoader23recursiveInitializationERKNS_11LinkContextEjPKcRNS_21InitializerTimingListERNS_15UninitedUpwardsE
   fun:_ZN11ImageLoader23recursiveInitializationERKNS_11LinkContextEjPKcRNS_21InitializerTimingListERNS_15UninitedUpwardsE
   fun:_ZN11ImageLoader19processInitializersERKNS_11LinkContextEjRNS_21InitializerTimingListERNS_15UninitedUpwardsE
   fun:_ZN11ImageLoader15runInitializersERKNS_11LinkContextERNS_21InitializerTimingListE
   fun:_ZN4dyld24initializeMainExecutableEv
}
{
   <Suppression: 27>
   Memcheck:Leak
   match-leak-kinds: reachable
   fun:malloc
   fun:_owned_ptr_alloc
   fun:setenv
   fun:_libxpc_initializer
   fun:libSystem_initializer
   fun:_ZN16ImageLoaderMachO18doModInitFunctionsERKN11ImageLoader11LinkContextE
   fun:_ZN16ImageLoaderMachO16doInitializationERKN11ImageLoader11LinkContextE
   fun:_ZN11ImageLoader23recursiveInitializationERKNS_11LinkContextEjPKcRNS_21InitializerTimingListERNS_15UninitedUpwardsE
   fun:_ZN11ImageLoader23recursiveInitializationERKNS_11LinkContextEjPKcRNS_21InitializerTimingListERNS_15UninitedUpwardsE
   fun:_ZN11ImageLoader19processInitializersERKNS_11LinkContextEjRNS_21InitializerTimingListERNS_15UninitedUpwardsE
   fun:_ZN11ImageLoader15runInitializersERKNS_11LinkContextERNS_21InitializerTimingListE
   fun:_ZN4dyld24initializeMainExecutableEv
}
{
   <Suppression: 28>
   Memcheck:Leak
   match-leak-kinds: reachable
   fun:calloc
   fun:objc_msgLookup
   fun:_os_object_alloc_realized
   fun:_dispatch_lane_create_with_target
   fun:_libtrace_init
   fun:libSystem_initializer
   fun:_ZN16ImageLoaderMachO18doModInitFunctionsERKN11ImageLoader11LinkContextE
   fun:_ZN16ImageLoaderMachO16doInitializationERKN11ImageLoader11LinkContextE
   fun:_ZN11ImageLoader23recursiveInitializationERKNS_11LinkContextEjPKcRNS_21InitializerTimingListERNS_15UninitedUpwardsE
   fun:_ZN11ImageLoader23recursiveInitializationERKNS_11LinkContextEjPKcRNS_21InitializerTimingListERNS_15UninitedUpwardsE
   fun:_ZN11ImageLoader19processInitializersERKNS_11LinkContextEjRNS_21InitializerTimingListERNS_15UninitedUpwardsE
   fun:_ZN11ImageLoader15runInitializersERKNS_11LinkContextERNS_21InitializerTimingListE
}
{
   <Suppression: 29>
   Memcheck:Leak
   match-leak-kinds: reachable
   fun:calloc
   fun:objc_msgLookup
   fun:_os_object_alloc_realized
   fun:xpc_dictionary_create
   fun:_xpc_collect_environment
   fun:_libxpc_initializer
   fun:libSystem_initializer
   fun:_ZN16ImageLoaderMachO18doModInitFunctionsERKN11ImageLoader11LinkContextE
   fun:_ZN16ImageLoaderMachO16doInitializationERKN11ImageLoader11LinkContextE
   fun:_ZN11ImageLoader23recursiveInitializationERKNS_11LinkContextEjPKcRNS_21InitializerTimingListERNS_15UninitedUpwardsE
   fun:_ZN11ImageLoader23recursiveInitializationERKNS_11LinkContextEjPKcRNS_21InitializerTimingListERNS_15UninitedUpwardsE
   fun:_ZN11ImageLoader19processInitializersERKNS_11LinkContextEjRNS_21InitializerTimingListERNS_15UninitedUpwardsE
}
{
   <Suppression: 30>
   Memcheck:Leak
   match-leak-kinds: reachable
   fun:calloc
   fun:objc_msgLookup
   fun:_os_object_alloc_realized
   fun:xpc_dictionary_create
   fun:_xpc_dyld_image_callback
   fun:_ZN4dyld20registerLoadCallbackEPFvPK11mach_headerPKcbE
   fun:_xpc_collect_images
   fun:_libxpc_initializer
   fun:libSystem_initializer
   fun:_ZN16ImageLoaderMachO18doModInitFunctionsERKN11ImageLoader11LinkContextE
   fun:_ZN16ImageLoaderMachO16doInitializationERKN11ImageLoader11LinkContextE
   fun:_ZN11ImageLoader23recursiveInitializationERKNS_11LinkContextEjPKcRNS_21InitializerTimingListERNS_15UninitedUpwardsE
}
{
   <Suppression: 31>
   Memcheck:Leak
   match-leak-kinds: reachable
   fun:calloc
   fun:objc_msgLookup
   fun:_os_object_alloc_realized
   fun:_xpc_string_create
   fun:xpc_string_create
   fun:xpc_dictionary_set_string
   fun:_xpc_collect_environment
   fun:_libxpc_initializer
   fun:libSystem_initializer
   fun:_ZN16ImageLoaderMachO18doModInitFunctionsERKN11ImageLoader11LinkContextE
   fun:_ZN16ImageLoaderMachO16doInitializationERKN11ImageLoader11LinkContextE
   fun:_ZN11ImageLoader23recursiveInitializationERKNS_11LinkContextEjPKcRNS_21InitializerTimingListERNS_15UninitedUpwardsE
}
{
   <Suppression: 32>
   Memcheck:Leak
   match-leak-kinds: reachable
   fun:malloc
   fun:_xpc_malloc
   fun:_xpc_dictionary_insert
   fun:_xpc_dyld_image_callback
   fun:_ZN4dyld20registerLoadCallbackEPFvPK11mach_headerPKcbE
   fun:_xpc_collect_images
   fun:_libxpc_initializer
   fun:libSystem_initializer
   fun:_ZN16ImageLoaderMachO18doModInitFunctionsERKN11ImageLoader11LinkContextE
   fun:_ZN16ImageLoaderMachO16doInitializationERKN11ImageLoader11LinkContextE
   fun:_ZN11ImageLoader23recursiveInitializationERKNS_11LinkContextEjPKcRNS_21InitializerTimingListERNS_15UninitedUpwardsE
   fun:_ZN11ImageLoader23recursiveInitializationERKNS_11LinkContextEjPKcRNS_21InitializerTimingListERNS_15UninitedUpwardsE
}
{
   <Suppression: 33>
   Memcheck:Leak
   match-leak-kinds: reachable
   fun:calloc
   fun:_objc_flush_caches
   fun:_objc_flush_caches
   fun:_read_images
   fun:_hasObjcContents
   fun:__objc_personality_v0
   fun:_ZN4dyldL18notifyBatchPartialE17dyld_image_statesbPFPKcS0_jPK15dyld_image_infoEbb
   fun:_ZN4dyld21registerObjCNotifiersEPFvjPKPKcPKPK11mach_headerEPFvS1_S6_ESC_
   fun:_dyld_objc_notify_register
   fun:environ_init
   fun:_os_object_init
   fun:libdispatch_init
}
{
   <Suppression: 34>
   Memcheck:Leak
   match-leak-kinds: reachable
   fun:calloc
   fun:_objc_flush_caches
   fun:_objc_flush_caches
   fun:_objc_flush_caches
   fun:_read_images
   fun:_hasObjcContents
   fun:__objc_personality_v0
   fun:_ZN4dyldL18notifyBatchPartialE17dyld_image_statesbPFPKcS0_jPK15dyld_image_infoEbb
   fun:_ZN4dyld21registerObjCNotifiersEPFvjPKPKcPKPK11mach_headerEPFvS1_S6_ESC_
   fun:_dyld_objc_notify_register
   fun:environ_init
   fun:_os_object_init
}
{
   <Suppression: 35>
   Memcheck:Leak
   match-leak-kinds: reachable
   fun:malloc
   fun:_xpc_malloc
   fun:_xpc_dictionary_insert
   fun:xpc_dictionary_set_string
   fun:_xpc_collect_environment
   fun:_libxpc_initializer
   fun:libSystem_initializer
   fun:_ZN16ImageLoaderMachO18doModInitFunctionsERKN11ImageLoader11LinkContextE
   fun:_ZN16ImageLoaderMachO16doInitializationERKN11ImageLoader11LinkContextE
   fun:_ZN11ImageLoader23recursiveInitializationERKNS_11LinkContextEjPKcRNS_21InitializerTimingListERNS_15UninitedUpwardsE
   fun:_ZN11ImageLoader23recursiveInitializationERKNS_11LinkContextEjPKcRNS_21InitializerTimingListERNS_15UninitedUpwardsE
   fun:_ZN11ImageLoader19processInitializersERKNS_11LinkContextEjRNS_21InitializerTimingListERNS_15UninitedUpwardsE
}
{
   <Suppression: 36>
   Memcheck:Leak
   match-leak-kinds: reachable
   fun:malloc
   fun:strdup
   fun:xpc_string_create
   fun:xpc_dictionary_set_string
   fun:_xpc_collect_environment
   fun:_libxpc_initializer
   fun:libSystem_initializer
   fun:_ZN16ImageLoaderMachO18doModInitFunctionsERKN11ImageLoader11LinkContextE
   fun:_ZN16ImageLoaderMachO16doInitializationERKN11ImageLoader11LinkContextE
   fun:_ZN11ImageLoader23recursiveInitializationERKNS_11LinkContextEjPKcRNS_21InitializerTimingListERNS_15UninitedUpwardsE
   fun:_ZN11ImageLoader23recursiveInitializationERKNS_11LinkContextEjPKcRNS_21InitializerTimingListERNS_15UninitedUpwardsE
   fun:_ZN11ImageLoader19processInitializersERKNS_11LinkContextEjRNS_21InitializerTimingListERNS_15UninitedUpwardsE
}
{
   <Suppression: 37>
   Memcheck:Leak
   match-leak-kinds: possible
   fun:malloc_zone_malloc
   fun:NXHashGet
   fun:NXCreateHashTableFromZone
   fun:NXMapRemove
   fun:_unload_image
   fun:_objc_flush_caches
   fun:_objc_flush_caches
   fun:_objc_flush_caches
   fun:_objc_flush_caches
   fun:_read_images
   fun:_hasObjcContents
   fun:__objc_personality_v0
}
{
   <Suppression: 38>
   Memcheck:Leak
   match-leak-kinds: reachable
   fun:malloc
   fun:arc4_init
   fun:arc4random_buf
   fun:_read_images
   fun:_hasObjcContents
   fun:__objc_personality_v0
   fun:_ZN4dyldL18notifyBatchPartialE17dyld_image_statesbPFPKcS0_jPK15dyld_image_infoEbb
   fun:_ZN4dyld21registerObjCNotifiersEPFvjPKPKcPKPK11mach_headerEPFvS1_S6_ESC_
   fun:_dyld_objc_notify_register
   fun:environ_init
   fun:_os_object_init
   fun:libdispatch_init
}
{
   <Suppression: 39>
   Memcheck:Leak
   match-leak-kinds: possible
   fun:malloc_zone_malloc
   fun:NXHashGet
   fun:NXCreateHashTableFromZone
   fun:_read_images
   fun:_hasObjcContents
   fun:__objc_personality_v0
   fun:_ZN4dyldL18notifyBatchPartialE17dyld_image_statesbPFPKcS0_jPK15dyld_image_infoEbb
   fun:_ZN4dyld21registerObjCNotifiersEPFvjPKPKcPKPK11mach_headerEPFvS1_S6_ESC_
   fun:_dyld_objc_notify_register
   fun:environ_init
   fun:_os_object_init
   fun:libdispatch_init
}
{
   <Suppression: 40>
   Memcheck:Leak
   match-leak-kinds: possible
   fun:malloc_zone_malloc
   fun:_ZN10objc_class14setHasCustomRREb
   fun:_ZL11addSubclassP10objc_classS0_
   fun:_read_images
   fun:_hasObjcContents
   fun:__objc_personality_v0
   fun:_ZN4dyldL18notifyBatchPartialE17dyld_image_statesbPFPKcS0_jPK15dyld_image_infoEbb
   fun:_ZN4dyld21registerObjCNotifiersEPFvjPKPKcPKPK11mach_headerEPFvS1_S6_ESC_
   fun:_dyld_objc_notify_register
   fun:environ_init
   fun:_os_object_init
   fun:libdispatch_init
}
{
   <Suppression: 41>
   Memcheck:Leak
   match-leak-kinds: reachable
   fun:calloc
   fun:_objc_flush_caches
   fun:_read_images
   fun:_hasObjcContents
   fun:__objc_personality_v0
   fun:_ZN4dyldL18notifyBatchPartialE17dyld_image_statesbPFPKcS0_jPK15dyld_image_infoEbb
   fun:_ZN4dyld21registerObjCNotifiersEPFvjPKPKcPKPK11mach_headerEPFvS1_S6_ESC_
   fun:_dyld_objc_notify_register
   fun:environ_init
   fun:_os_object_init
   fun:libdispatch_init
   fun:libSystem_initializer
}
{
   <Suppression: 42>
   Memcheck:Leak
   match-leak-kinds: reachable
   fun:calloc
   fun:_objc_flush_caches
   fun:_objc_flush_caches
   fun:_read_images
   fun:_hasObjcContents
   fun:__objc_personality_v0
   fun:_ZN4dyldL18notifyBatchPartialE17dyld_image_statesbPFPKcS0_jPK15dyld_image_infoEbb
   fun:_ZN4dyld21registerObjCNotifiersEPFvjPKPKcPKPK11mach_headerEPFvS1_S6_ESC_
   fun:_dyld_objc_notify_register
   fun:environ_init
   fun:_os_object_init
   fun:libdispatch_init
}
{
   <Suppression: 43>
   Memcheck:Leak
   match-leak-kinds: possible
   fun:malloc_zone_malloc
   fun:_ZN10objc_class14setHasCustomRREb
   fun:_ZL11addSubclassP10objc_classS0_
   fun:_ZNSt3__112__hash_tableINS_17__hash_value_typeImPN23objc_references_support20ObjectAssociationMapEEENS_22__unordered_map_hasherImS5_NS2_20DisguisedPointerHashELb1EEENS_21__unordered_map_equalImS5_NS2_21DisguisedPointerEqualELb1EEENS2_13ObjcAllocatorIS5_EEE8__rehashEm
   fun:_ZL18updateCustomRR_AWZP10objc_classP8method_t
   fun:_ZL9addMethodP10objc_classP13objc_selectorPFvvEPKcb
   fun:_ZL17realizeAllClassesv
   fun:_objc_flush_caches
   fun:_objc_flush_caches
   fun:_objc_flush_caches
   fun:_objc_flush_caches
   fun:_read_images
}

